target datalayout = "e-m:e-p270:32:32-p271:32:32-p272:64:64-i64:64-i128:128-f80:128-n8:16:32:64-S128"
target triple = "x86_64-pc-linux-gnu"

%"class.llvm::StringRef" = type { ptr, i64 }
%"class.std::__cxx11::basic_string" = type { %"struct.std::__cxx11::basic_string<char>::_Alloc_hider", i64, %union.anon }
%"struct.std::__cxx11::basic_string<char>::_Alloc_hider" = type { ptr }
%union.anon = type { i64, [8 x i8] }
%"class.llvm::SmallVectorImpl" = type { %"class.llvm::SmallVectorTemplateBase" }
%"class.llvm::SmallVectorTemplateBase" = type { %"class.llvm::SmallVectorTemplateCommon" }
%"class.llvm::SmallVectorTemplateCommon" = type { %"class.llvm::SmallVectorBase" }
%"class.llvm::SmallVectorBase" = type { ptr, i32, i32 }
%"struct.clang::format::FormatToken" = type <{ %"class.clang::Token", %"class.llvm::StringRef", %"class.std::shared_ptr.127", %"class.clang::SourceRange", i8, i16, i8, i32, i32, i32, i32, i32, i32, i32, i32, i32, i16, [2 x i8], i32, i32, i32, i32, i32, i32, i32, i32, i32, i32, [4 x i8], %"class.llvm::SmallVector.130", i32, i32, ptr, ptr, ptr, ptr, i8, i8, i8, i8, i8, i8, [2 x i8], %"class.llvm::SmallVector.135", %"class.std::optional.140", i8, [7 x i8] }>
%"class.clang::Token" = type <{ i32, i32, ptr, i16, i16, [4 x i8] }>
%"class.std::shared_ptr.127" = type { %"class.std::__shared_ptr.128" }
%"class.std::__shared_ptr.128" = type { ptr, %"class.std::__shared_count" }
%"class.std::__shared_count" = type { ptr }
%"class.clang::SourceRange" = type { %"class.clang::SourceLocation", %"class.clang::SourceLocation" }
%"class.clang::SourceLocation" = type { i32 }
%"class.llvm::SmallVector.130" = type { %"class.llvm::SmallVectorImpl.131", %"struct.llvm::SmallVectorStorage.134" }
%"class.llvm::SmallVectorImpl.131" = type { %"class.llvm::SmallVectorTemplateBase.132" }
%"class.llvm::SmallVectorTemplateBase.132" = type { %"class.llvm::SmallVectorTemplateCommon.133" }
%"class.llvm::SmallVectorTemplateCommon.133" = type { %"class.llvm::SmallVectorBase" }
%"struct.llvm::SmallVectorStorage.134" = type { [16 x i8] }
%"class.llvm::SmallVector.135" = type { %"class.llvm::SmallVectorImpl.136", %"struct.llvm::SmallVectorStorage.139" }
%"class.llvm::SmallVectorImpl.136" = type { %"class.llvm::SmallVectorTemplateBase.137" }
%"class.llvm::SmallVectorTemplateBase.137" = type { %"class.llvm::SmallVectorTemplateCommon.138" }
%"class.llvm::SmallVectorTemplateCommon.138" = type { %"class.llvm::SmallVectorBase" }
%"struct.llvm::SmallVectorStorage.139" = type { [8 x i8] }
%"class.std::optional.140" = type { %"struct.std::_Optional_base.141" }
%"struct.std::_Optional_base.141" = type { %"struct.std::_Optional_payload.143" }
%"struct.std::_Optional_payload.143" = type { %"struct.std::_Optional_payload.base.147", [7 x i8] }
%"struct.std::_Optional_payload.base.147" = type { %"struct.std::_Optional_payload_base.base.146" }
%"struct.std::_Optional_payload_base.base.146" = type <{ %"union.std::_Optional_payload_base<clang::format::MacroExpansion>::_Storage", i8 }>
%"union.std::_Optional_payload_base<clang::format::MacroExpansion>::_Storage" = type { %"struct.clang::format::MacroExpansion" }
%"struct.clang::format::MacroExpansion" = type { i32, %"class.llvm::SmallVector.30", i32, i32 }
%"class.llvm::SmallVector.30" = type { %"class.llvm::SmallVectorImpl.31", %"struct.llvm::SmallVectorStorage.34" }
%"class.llvm::SmallVectorImpl.31" = type { %"class.llvm::SmallVectorTemplateBase.32" }
%"class.llvm::SmallVectorTemplateBase.32" = type { %"class.llvm::SmallVectorTemplateCommon.33" }
%"class.llvm::SmallVectorTemplateCommon.33" = type { %"class.llvm::SmallVectorBase" }
%"struct.llvm::SmallVectorStorage.34" = type { [8 x i8] }
%"class.llvm::ArrayRef" = type { ptr, i64 }
%"class.clang::format::UnwrappedLineParser" = type { %"class.std::unique_ptr", %"class.llvm::SmallVector", %"class.llvm::DenseMap", %"class.llvm::DenseMap.2", i8, [7 x i8], %"class.std::optional", %"class.llvm::SmallVector.30", ptr, i8, %"class.llvm::SmallVector", %"class.llvm::SmallVector.35", ptr, %"class.llvm::BitVector", ptr, i8, [7 x i8], %"class.clang::LangOptions", ptr, %"class.llvm::Regex", ptr, ptr, %"class.llvm::ArrayRef", %"class.llvm::SmallVector.64", %"class.llvm::SmallVector.70", i8, %"class.llvm::SmallVector.72", i32, %"class.llvm::SmallVector.77", %"class.llvm::SmallVector.77", %"class.std::stack", i32, ptr, i32, %"class.clang::format::MacroExpander" }
%"class.std::unique_ptr" = type { %"struct.std::__uniq_ptr_data" }
%"struct.std::__uniq_ptr_data" = type { %"class.std::__uniq_ptr_impl" }
%"class.std::__uniq_ptr_impl" = type { %"class.std::tuple" }
%"class.std::tuple" = type { %"struct.std::_Tuple_impl" }
%"struct.std::_Tuple_impl" = type { %"struct.std::_Head_base.1" }
%"struct.std::_Head_base.1" = type { ptr }
%"class.llvm::DenseMap" = type <{ ptr, i32, i32, i32, [4 x i8] }>
%"class.llvm::DenseMap.2" = type <{ ptr, i32, i32, i32, [4 x i8] }>
%"class.std::optional" = type { %"struct.std::_Optional_base" }
%"struct.std::_Optional_base" = type { %"struct.std::_Optional_payload" }
%"struct.std::_Optional_payload" = type { %"struct.std::_Optional_payload.base", [7 x i8] }
%"struct.std::_Optional_payload.base" = type { %"struct.std::_Optional_payload_base.base" }
%"struct.std::_Optional_payload_base.base" = type <{ %"union.std::_Optional_payload_base<clang::format::MacroCallReconstructor>::_Storage", i8 }>
%"union.std::_Optional_payload_base<clang::format::MacroCallReconstructor>::_Storage" = type { %"class.clang::format::MacroCallReconstructor" }
%"class.clang::format::MacroCallReconstructor" = type { %"struct.clang::format::MacroCallReconstructor::ReconstructedLine", %"class.llvm::SmallVector.11", %"class.llvm::DenseMap.16", %"class.llvm::SmallVector.19", %"class.llvm::SmallVector.24", ptr }
%"struct.clang::format::MacroCallReconstructor::ReconstructedLine" = type { i32, %"class.llvm::SmallVector.6" }
%"class.llvm::SmallVector.6" = type { %"class.llvm::SmallVectorImpl.7", %"struct.llvm::SmallVectorStorage.10" }
%"class.llvm::SmallVectorImpl.7" = type { %"class.llvm::SmallVectorTemplateBase.8" }
%"class.llvm::SmallVectorTemplateBase.8" = type { %"class.llvm::SmallVectorTemplateCommon.9" }
%"class.llvm::SmallVectorTemplateCommon.9" = type { %"class.llvm::SmallVectorBase" }
%"struct.llvm::SmallVectorStorage.10" = type { [48 x i8] }
%"class.llvm::SmallVector.11" = type { %"class.llvm::SmallVectorImpl.12", %"struct.llvm::SmallVectorStorage.15" }
%"class.llvm::SmallVectorImpl.12" = type { %"class.llvm::SmallVectorTemplateBase.13" }
%"class.llvm::SmallVectorTemplateBase.13" = type { %"class.llvm::SmallVectorTemplateCommon.14" }
%"class.llvm::SmallVectorTemplateCommon.14" = type { %"class.llvm::SmallVectorBase" }
%"struct.llvm::SmallVectorStorage.15" = type { [48 x i8] }
%"class.llvm::DenseMap.16" = type <{ ptr, i32, i32, i32, [4 x i8] }>
%"class.llvm::SmallVector.19" = type { %"class.llvm::SmallVectorImpl.20", %"struct.llvm::SmallVectorStorage.23" }
%"class.llvm::SmallVectorImpl.20" = type { %"class.llvm::SmallVectorTemplateBase.21" }
%"class.llvm::SmallVectorTemplateBase.21" = type { %"class.llvm::SmallVectorTemplateCommon.22" }
%"class.llvm::SmallVectorTemplateCommon.22" = type { %"class.llvm::SmallVectorBase" }
%"struct.llvm::SmallVectorStorage.23" = type { [48 x i8] }
%"class.llvm::SmallVector.24" = type { %"class.llvm::SmallVectorImpl.25", %"struct.llvm::SmallVectorStorage.28" }
%"class.llvm::SmallVectorImpl.25" = type { %"class.llvm::SmallVectorTemplateBase.26" }
%"class.llvm::SmallVectorTemplateBase.26" = type { %"class.llvm::SmallVectorTemplateCommon.27" }
%"class.llvm::SmallVectorTemplateCommon.27" = type { %"class.llvm::SmallVectorBase" }
%"struct.llvm::SmallVectorStorage.28" = type { [48 x i8] }
%"class.llvm::SmallVector" = type { %"class.llvm::SmallVectorImpl", %"struct.llvm::SmallVectorStorage" }
%"struct.llvm::SmallVectorStorage" = type { [576 x i8] }
%"class.llvm::SmallVector.35" = type { %"class.llvm::SmallVectorImpl", %"struct.llvm::SmallVectorStorage.36" }
%"struct.llvm::SmallVectorStorage.36" = type { [288 x i8] }
%"class.llvm::BitVector" = type <{ %"class.llvm::SmallVector.37", i32, [4 x i8] }>
%"class.llvm::SmallVector.37" = type { %"class.llvm::SmallVectorImpl.38", %"struct.llvm::SmallVectorStorage.41" }
%"class.llvm::SmallVectorImpl.38" = type { %"class.llvm::SmallVectorTemplateBase.39" }
%"class.llvm::SmallVectorTemplateBase.39" = type { %"class.llvm::SmallVectorTemplateCommon.40" }
%"class.llvm::SmallVectorTemplateCommon.40" = type { %"class.llvm::SmallVectorBase" }
%"struct.llvm::SmallVectorStorage.41" = type { [48 x i8] }
%"class.clang::LangOptions" = type <{ %"class.clang::LangOptionsBase.base", [2 x i8], i32, %"struct.clang::SanitizerSet", i8, [7 x i8], %"class.std::vector", %"class.std::vector", %"class.std::vector", %"class.std::vector", %"class.std::vector", %"class.clang::ObjCRuntime", i32, %"class.std::__cxx11::basic_string", %"class.std::__cxx11::basic_string", %"class.std::__cxx11::basic_string", %"class.std::__cxx11::basic_string", %"class.std::vector", %"struct.clang::CommentOptions", %"class.std::vector", %"class.std::map", %"class.std::vector.51", %"class.std::__cxx11::basic_string", %"class.std::__cxx11::basic_string", %"class.std::optional.56", i8, [3 x i8], i32, i32, [4 x i8], %"class.std::vector", %"class.std::__cxx11::basic_string", i8, i8, [6 x i8], %"class.std::__cxx11::basic_string", i8, [7 x i8] }>
%"class.clang::LangOptionsBase.base" = type <{ i64, i64, i64, i64, i64, i64, i64, i64, i64, i64, i64, i64, i64, i64, i64, i64, i64, i64, i64, i64, i64, i64, i64, i64, i64, i16 }>
%"struct.clang::SanitizerSet" = type { %"class.clang::SanitizerMask" }
%"class.clang::SanitizerMask" = type { [2 x i64] }
%"class.clang::ObjCRuntime" = type <{ i32, %"class.llvm::VersionTuple" }>
%"class.llvm::VersionTuple" = type { i64, i64 }
%"struct.clang::CommentOptions" = type <{ %"class.std::vector", i8, [7 x i8] }>
%"class.std::map" = type { %"class.std::_Rb_tree" }
%"class.std::_Rb_tree" = type { %"struct.std::_Rb_tree<std::__cxx11::basic_string<char>, std::pair<const std::__cxx11::basic_string<char>, std::__cxx11::basic_string<char>>, std::_Select1st<std::pair<const std::__cxx11::basic_string<char>, std::__cxx11::basic_string<char>>>, std::greater<std::__cxx11::basic_string<char>>>::_Rb_tree_impl" }
%"struct.std::_Rb_tree<std::__cxx11::basic_string<char>, std::pair<const std::__cxx11::basic_string<char>, std::__cxx11::basic_string<char>>, std::_Select1st<std::pair<const std::__cxx11::basic_string<char>, std::__cxx11::basic_string<char>>>, std::greater<std::__cxx11::basic_string<char>>>::_Rb_tree_impl" = type { [8 x i8], %"struct.std::_Rb_tree_header" }
%"struct.std::_Rb_tree_header" = type { %"struct.std::_Rb_tree_node_base", i64 }
%"struct.std::_Rb_tree_node_base" = type { i32, ptr, ptr, ptr }
%"class.std::vector.51" = type { %"struct.std::_Vector_base.52" }
%"struct.std::_Vector_base.52" = type { %"struct.std::_Vector_base<llvm::Triple, std::allocator<llvm::Triple>>::_Vector_impl" }
%"struct.std::_Vector_base<llvm::Triple, std::allocator<llvm::Triple>>::_Vector_impl" = type { %"struct.std::_Vector_base<llvm::Triple, std::allocator<llvm::Triple>>::_Vector_impl_data" }
%"struct.std::_Vector_base<llvm::Triple, std::allocator<llvm::Triple>>::_Vector_impl_data" = type { ptr, ptr, ptr }
%"class.std::optional.56" = type { %"struct.std::_Optional_base.57" }
%"struct.std::_Optional_base.57" = type { %"struct.std::_Optional_payload.59" }
%"struct.std::_Optional_payload.59" = type { %"struct.std::_Optional_payload_base.base.61", [3 x i8] }
%"struct.std::_Optional_payload_base.base.61" = type <{ %"union.std::_Optional_payload_base<clang::TargetCXXABI::Kind>::_Storage", i8 }>
%"union.std::_Optional_payload_base<clang::TargetCXXABI::Kind>::_Storage" = type { i32 }
%"class.std::vector" = type { %"struct.std::_Vector_base" }
%"struct.std::_Vector_base" = type { %"struct.std::_Vector_base<std::__cxx11::basic_string<char>, std::allocator<std::__cxx11::basic_string<char>>>::_Vector_impl" }
%"struct.std::_Vector_base<std::__cxx11::basic_string<char>, std::allocator<std::__cxx11::basic_string<char>>>::_Vector_impl" = type { %"struct.std::_Vector_base<std::__cxx11::basic_string<char>, std::allocator<std::__cxx11::basic_string<char>>>::_Vector_impl_data" }
%"struct.std::_Vector_base<std::__cxx11::basic_string<char>, std::allocator<std::__cxx11::basic_string<char>>>::_Vector_impl_data" = type { ptr, ptr, ptr }
%"class.llvm::Regex" = type <{ ptr, i32, [4 x i8] }>
%"class.llvm::SmallVector.64" = type { %"class.llvm::SmallVectorImpl.65", %"struct.llvm::SmallVectorStorage.69" }
%"class.llvm::SmallVectorImpl.65" = type { %"class.llvm::SmallVectorTemplateBase.66" }
%"class.llvm::SmallVectorTemplateBase.66" = type { %"class.llvm::SmallVectorTemplateCommon.67" }
%"class.llvm::SmallVectorTemplateCommon.67" = type { %"class.llvm::SmallVectorBase.68" }
%"class.llvm::SmallVectorBase.68" = type { ptr, i64, i64 }
%"struct.llvm::SmallVectorStorage.69" = type { [8 x i8] }
%"class.llvm::SmallVector.70" = type <{ %"class.llvm::SmallVectorImpl.65", %"struct.llvm::SmallVectorStorage.71", [4 x i8] }>
%"struct.llvm::SmallVectorStorage.71" = type { [4 x i8] }
%"class.llvm::SmallVector.72" = type { %"class.llvm::SmallVectorImpl.73", %"struct.llvm::SmallVectorStorage.76" }
%"class.llvm::SmallVectorImpl.73" = type { %"class.llvm::SmallVectorTemplateBase.74" }
%"class.llvm::SmallVectorTemplateBase.74" = type { %"class.llvm::SmallVectorTemplateCommon.75" }
%"class.llvm::SmallVectorTemplateCommon.75" = type { %"class.llvm::SmallVectorBase" }
%"struct.llvm::SmallVectorStorage.76" = type { [256 x i8] }
%"class.llvm::SmallVector.77" = type { %"class.llvm::SmallVectorImpl.78", %"struct.llvm::SmallVectorStorage.81" }
%"class.llvm::SmallVectorImpl.78" = type { %"class.llvm::SmallVectorTemplateBase.79" }
%"class.llvm::SmallVectorTemplateBase.79" = type { %"class.llvm::SmallVectorTemplateCommon.80" }
%"class.llvm::SmallVectorTemplateCommon.80" = type { %"class.llvm::SmallVectorBase" }
%"struct.llvm::SmallVectorStorage.81" = type { [32 x i8] }
%"class.std::stack" = type { %"class.std::deque" }
%"class.std::deque" = type { %"class.std::_Deque_base" }
%"class.std::_Deque_base" = type { %"struct.std::_Deque_base<int, std::allocator<int>>::_Deque_impl" }
%"struct.std::_Deque_base<int, std::allocator<int>>::_Deque_impl" = type { %"struct.std::_Deque_base<int, std::allocator<int>>::_Deque_impl_data" }
%"struct.std::_Deque_base<int, std::allocator<int>>::_Deque_impl_data" = type { ptr, i64, %"struct.std::_Deque_iterator", %"struct.std::_Deque_iterator" }
%"struct.std::_Deque_iterator" = type { ptr, ptr, ptr, ptr }
%"class.clang::format::MacroExpander" = type { ptr, ptr, ptr, ptr, %"class.llvm::SmallVector.85", %"class.llvm::StringMap", %"class.llvm::StringMap.90" }
%"class.llvm::SmallVector.85" = type { %"class.llvm::SmallVectorImpl.86", %"struct.llvm::SmallVectorStorage.89" }
%"class.llvm::SmallVectorImpl.86" = type { %"class.llvm::SmallVectorTemplateBase.87" }
%"class.llvm::SmallVectorTemplateBase.87" = type { %"class.llvm::SmallVectorTemplateCommon.88" }
%"class.llvm::SmallVectorTemplateCommon.88" = type { %"class.llvm::SmallVectorBase" }
%"struct.llvm::SmallVectorStorage.89" = type { [48 x i8] }
%"class.llvm::StringMap" = type { %"class.llvm::StringMapImpl" }
%"class.llvm::StringMapImpl" = type { ptr, i32, i32, i32, i32 }
%"class.llvm::StringMap.90" = type { %"class.llvm::StringMapImpl" }

; Function Attrs: mustprogress nounwind uwtable
define linkonce_odr hidden noundef i32 @_ZNK5clang6format11FormatToken12getBlockKindEv(ptr noundef nonnull align 8 dereferenceable(305) %0) #0 comdat align 2 {
  %2 = alloca ptr, align 8
  store ptr %0, ptr %2, align 8
  %3 = load ptr, ptr %2, align 8
  %4 = getelementptr inbounds nuw %"struct.clang::format::FormatToken", ptr %3, i32 0, i32 5
  %5 = load i16, ptr %4, align 1
  %6 = lshr i16 %5, 7
  %7 = and i16 %6, 3
  %8 = zext i16 %7 to i32
  ret i32 %8
}

; Function Attrs: mustprogress nounwind uwtable
define linkonce_odr hidden noundef zeroext i1 @_ZNK5clang6format11FormatToken2isENS0_14BraceBlockKindE(ptr noundef nonnull align 8 dereferenceable(305) %0, i32 noundef %1) #0 comdat align 2 {
  %3 = alloca ptr, align 8
  %4 = alloca i32, align 4
  store ptr %0, ptr %3, align 8
  store i32 %1, ptr %4, align 4
  %5 = load ptr, ptr %3, align 8
  %6 = call noundef i32 @_ZNK5clang6format11FormatToken12getBlockKindEv(ptr noundef nonnull align 8 dereferenceable(305) %5)
  %7 = load i32, ptr %4, align 4
  %8 = icmp eq i32 %6, %7
  ret i1 %8
}

; Function Attrs: mustprogress nounwind uwtable
define dso_local noundef zeroext i1 @_ZN5clang6format19UnwrappedLineParser20tryToParseBracedListEv(ptr noundef nonnull align 8 dereferenceable(3592) %0) #0 align 2 {
  %2 = alloca i1, align 1
  %3 = alloca ptr, align 8
  store ptr %0, ptr %3, align 8
  %4 = load ptr, ptr %3, align 8
  %5 = getelementptr inbounds nuw %"class.clang::format::UnwrappedLineParser", ptr %4, i32 0, i32 8
  %6 = load ptr, ptr %5, align 8
  %7 = call noundef zeroext i1 @_ZNK5clang6format11FormatToken2isENS0_14BraceBlockKindE(ptr noundef nonnull align 8 dereferenceable(305) %6, i32 noundef 0)
  br i1 %7, label %8, label %9

8:                                                ; preds = %1
  call void @_ZN5clang6format19UnwrappedLineParser19calculateBraceTypesEb(ptr noundef nonnull align 8 dereferenceable(3592) %4, i1 noundef zeroext false)
  br label %9

9:                                                ; preds = %8, %1
  %10 = getelementptr inbounds nuw %"class.clang::format::UnwrappedLineParser", ptr %4, i32 0, i32 8
  %11 = load ptr, ptr %10, align 8
  %12 = call noundef zeroext i1 @_ZNK5clang6format11FormatToken2isENS0_14BraceBlockKindE(ptr noundef nonnull align 8 dereferenceable(305) %11, i32 noundef 1)
  br i1 %12, label %13, label %14

13:                                               ; preds = %9
  store i1 false, ptr %2, align 1
  br label %16

14:                                               ; preds = %9
  call void @_ZN5clang6format19UnwrappedLineParser9nextTokenEi(ptr noundef nonnull align 8 dereferenceable(3592) %4, i32 noundef 0)
  %15 = call noundef zeroext i1 @_ZN5clang6format19UnwrappedLineParser15parseBracedListEbb(ptr noundef nonnull align 8 dereferenceable(3592) %4, i1 noundef zeroext false, i1 noundef zeroext false)
  store i1 true, ptr %2, align 1
  br label %16

16:                                               ; preds = %14, %13
  %17 = load i1, ptr %2, align 1
  ret i1 %17
}