; Function Attrs: mustprogress nounwind uwtable
define dso_local noundef zeroext i1 @_ZN5clang6format19UnwrappedLineParser20tryToParseBracedListEv(ptr noundef nonnull align 8 dereferenceable(3592) %0) local_unnamed_addr #0 align 2 {
  %2 = getelementptr inbounds nuw i8, ptr %0, i64 984
  %3 = load ptr, ptr %2, align 8
  %4 = getelementptr inbounds nuw i8, ptr %3, i64 65
  %5 = load i16, ptr %4, align 1
  %6 = and i16 %5, 384
  %7 = icmp eq i16 %6, 0
  br i1 %7, label %8, label %9

8:                                                ; preds = %1
  tail call void @_ZN5clang6format19UnwrappedLineParser19calculateBraceTypesEb(ptr noundef nonnull align 8 dereferenceable(3592) %0, i1 noundef zeroext false)
  %.pre = load ptr, ptr %2, align 8
  %.phi.trans.insert = getelementptr inbounds nuw i8, ptr %.pre, i64 65
  %.pre2 = load i16, ptr %.phi.trans.insert, align 1
  %.pre3 = and i16 %.pre2, 384
  br label %9

9:                                                ; preds = %8, %1
  %.pre-phi = phi i16 [ %.pre3, %8 ], [ %6, %1 ]
  %10 = icmp ne i16 %.pre-phi, 128
  br i1 %10, label %11, label %13

11:                                               ; preds = %9
  tail call void @_ZN5clang6format19UnwrappedLineParser9nextTokenEi(ptr noundef nonnull align 8 dereferenceable(3592) %0, i32 noundef 0)
  %12 = tail call noundef zeroext i1 @_ZN5clang6format19UnwrappedLineParser15parseBracedListEbb(ptr noundef nonnull align 8 dereferenceable(3592) %0, i1 noundef zeroext false, i1 noundef zeroext false)
  br label %13

13:                                               ; preds = %9, %11
  ret i1 %10
}